; Function Attrs: mustprogress uwtable
define hidden noundef i32 @_ZN4lean22get_cases_on_major_idxERKNS_16elab_environmentERKNS_4nameEb(ptr noundef nonnull align 8 dereferenceable(8) %0, ptr noundef nonnull align 8 dereferenceable(8) %1, i1 noundef zeroext %2) local_unnamed_addr #0 personality ptr @__gxx_personality_v0 {
  %4 = alloca %"class.lean::inductive_val", align 8
  br i1 %2, label %5, label %31

5:                                                ; preds = %3
  call void @llvm.lifetime.start.p0(i64 8, ptr nonnull %4) #25
  call void @_ZN4lean26get_cases_on_inductive_valERKNS_16elab_environmentERKNS_4nameE(ptr dead_on_unwind nonnull writable sret(%"class.lean::inductive_val") align 8 %4, ptr noundef nonnull align 8 dereferenceable(8) %0, ptr noundef nonnull align 8 dereferenceable(8) %1)
  %6 = load ptr, ptr %4, align 8, !tbaa !3
  %7 = getelementptr inbounds nuw i8, ptr %6, i64 16
  %8 = load ptr, ptr %7, align 8, !tbaa !3
  %9 = ptrtoint ptr %8 to i64
  %10 = lshr i64 %9, 1
  %11 = trunc i64 %10 to i32
  %12 = getelementptr inbounds nuw i8, ptr %6, i64 24
  %13 = load ptr, ptr %12, align 8, !tbaa !3
  %14 = ptrtoint ptr %13 to i64
  %15 = lshr i64 %14, 1
  %16 = trunc i64 %15 to i32
  %17 = add i32 %11, 1
  %18 = add i32 %17, %16
  %19 = ptrtoint ptr %6 to i64
  %20 = and i64 %19, 1
  %.not.i.i = icmp eq i64 %20, 0
  br i1 %.not.i.i, label %21, label %_ZN4lean10object_refD2Ev.exit

21:                                               ; preds = %5
  %22 = load i32, ptr %6, align 4, !tbaa !13
  %23 = icmp sgt i32 %22, 1
  br i1 %23, label %24, label %26, !prof !15

24:                                               ; preds = %21
  %25 = add nsw i32 %22, -1
  store i32 %25, ptr %6, align 4, !tbaa !13
  br label %_ZN4lean10object_refD2Ev.exit

26:                                               ; preds = %21
  %.not.i.i.i = icmp eq i32 %22, 0
  br i1 %.not.i.i.i, label %_ZN4lean10object_refD2Ev.exit, label %27

27:                                               ; preds = %26
  invoke void @lean_dec_ref_cold(ptr noundef nonnull %6)
          to label %_ZN4lean10object_refD2Ev.exit unwind label %28

28:                                               ; preds = %27
  %29 = landingpad { ptr, i32 }
          catch ptr null
  %30 = extractvalue { ptr, i32 } %29, 0
  call void @__clang_call_terminate(ptr %30) #26
  unreachable

_ZN4lean10object_refD2Ev.exit:                    ; preds = %5, %24, %26, %27
  call void @llvm.lifetime.end.p0(i64 8, ptr nonnull %4) #25
  br label %31

31:                                               ; preds = %3, %_ZN4lean10object_refD2Ev.exit
  %.0 = phi i32 [ %18, %_ZN4lean10object_refD2Ev.exit ], [ 0, %3 ]
  ret i32 %.0
}